; Function Attrs: mustprogress nounwind uwtable
define hidden void @_ZN7datalog17external_relationD2Ev(ptr nocapture noundef nonnull align 8 dereferenceable(96) %this) unnamed_addr #4 align 2 personality ptr @__gxx_personality_v0 {
entry:
  store ptr getelementptr inbounds ({ [22 x ptr] }, ptr @_ZTVN7datalog17external_relationE, i64 0, i32 0, i64 2), ptr %this, align 8
  %m_is_empty_fn = getelementptr inbounds i8, ptr %this, i64 80
  %0 = load ptr, ptr %m_is_empty_fn, align 8
  %tobool.not.i.i = icmp eq ptr %0, null
  br i1 %tobool.not.i.i, label %_ZN7obj_refI9func_decl11ast_managerED2Ev.exit, label %if.then.i.i.i

if.then.i.i.i:                                    ; preds = %entry
  %m_manager.i.i = getelementptr inbounds i8, ptr %this, i64 88
  %1 = load ptr, ptr %m_manager.i.i, align 8
  %m_ref_count.i.i.i.i = getelementptr inbounds i8, ptr %0, i64 8
  %2 = load i32, ptr %m_ref_count.i.i.i.i, align 4
  %dec.i.i.i.i = add i32 %2, -1
  store i32 %dec.i.i.i.i, ptr %m_ref_count.i.i.i.i, align 4
  %cmp.i.i.i = icmp eq i32 %dec.i.i.i.i, 0
  br i1 %cmp.i.i.i, label %if.then2.i.i.i, label %_ZN7obj_refI9func_decl11ast_managerED2Ev.exit

if.then2.i.i.i:                                   ; preds = %if.then.i.i.i
  invoke void @_ZN11ast_manager11delete_nodeEP3ast(ptr noundef nonnull align 8 dereferenceable(976) %1, ptr noundef nonnull %0)
          to label %_ZN7obj_refI9func_decl11ast_managerED2Ev.exit unwind label %terminate.lpad.i

terminate.lpad.i:                                 ; preds = %if.then2.i.i.i
  %3 = landingpad { ptr, i32 }
          catch ptr null
  %4 = extractvalue { ptr, i32 } %3, 0
  tail call void @__clang_call_terminate(ptr %4) #18
  unreachable

_ZN7obj_refI9func_decl11ast_managerED2Ev.exit:    ; preds = %entry, %if.then.i.i.i, %if.then2.i.i.i
  %m_store_fn = getelementptr inbounds i8, ptr %this, i64 64
  %5 = load ptr, ptr %m_store_fn, align 8
  %tobool.not.i.i1 = icmp eq ptr %5, null
  br i1 %tobool.not.i.i1, label %_ZN7obj_refI9func_decl11ast_managerED2Ev.exit9, label %if.then.i.i.i2

if.then.i.i.i2:                                   ; preds = %_ZN7obj_refI9func_decl11ast_managerED2Ev.exit
  %m_manager.i.i3 = getelementptr inbounds i8, ptr %this, i64 72
  %6 = load ptr, ptr %m_manager.i.i3, align 8
  %m_ref_count.i.i.i.i4 = getelementptr inbounds i8, ptr %5, i64 8
  %7 = load i32, ptr %m_ref_count.i.i.i.i4, align 4
  %dec.i.i.i.i5 = add i32 %7, -1
  store i32 %dec.i.i.i.i5, ptr %m_ref_count.i.i.i.i4, align 4
  %cmp.i.i.i6 = icmp eq i32 %dec.i.i.i.i5, 0
  br i1 %cmp.i.i.i6, label %if.then2.i.i.i7, label %_ZN7obj_refI9func_decl11ast_managerED2Ev.exit9

if.then2.i.i.i7:                                  ; preds = %if.then.i.i.i2
  invoke void @_ZN11ast_manager11delete_nodeEP3ast(ptr noundef nonnull align 8 dereferenceable(976) %6, ptr noundef nonnull %5)
          to label %_ZN7obj_refI9func_decl11ast_managerED2Ev.exit9 unwind label %terminate.lpad.i8

terminate.lpad.i8:                                ; preds = %if.then2.i.i.i7
  %8 = landingpad { ptr, i32 }
          catch ptr null
  %9 = extractvalue { ptr, i32 } %8, 0
  tail call void @__clang_call_terminate(ptr %9) #18
  unreachable

_ZN7obj_refI9func_decl11ast_managerED2Ev.exit9:   ; preds = %_ZN7obj_refI9func_decl11ast_managerED2Ev.exit, %if.then.i.i.i2, %if.then2.i.i.i7
  %m_select_fn = getelementptr inbounds i8, ptr %this, i64 48
  %10 = load ptr, ptr %m_select_fn, align 8
  %tobool.not.i.i10 = icmp eq ptr %10, null
  br i1 %tobool.not.i.i10, label %_ZN7obj_refI9func_decl11ast_managerED2Ev.exit18, label %if.then.i.i.i11

if.then.i.i.i11:                                  ; preds = %_ZN7obj_refI9func_decl11ast_managerED2Ev.exit9
  %m_manager.i.i12 = getelementptr inbounds i8, ptr %this, i64 56
  %11 = load ptr, ptr %m_manager.i.i12, align 8
  %m_ref_count.i.i.i.i13 = getelementptr inbounds i8, ptr %10, i64 8
  %12 = load i32, ptr %m_ref_count.i.i.i.i13, align 4
  %dec.i.i.i.i14 = add i32 %12, -1
  store i32 %dec.i.i.i.i14, ptr %m_ref_count.i.i.i.i13, align 4
  %cmp.i.i.i15 = icmp eq i32 %dec.i.i.i.i14, 0
  br i1 %cmp.i.i.i15, label %if.then2.i.i.i16, label %_ZN7obj_refI9func_decl11ast_managerED2Ev.exit18

if.then2.i.i.i16:                                 ; preds = %if.then.i.i.i11
  invoke void @_ZN11ast_manager11delete_nodeEP3ast(ptr noundef nonnull align 8 dereferenceable(976) %11, ptr noundef nonnull %10)
          to label %_ZN7obj_refI9func_decl11ast_managerED2Ev.exit18 unwind label %terminate.lpad.i17

terminate.lpad.i17:                               ; preds = %if.then2.i.i.i16
  %13 = landingpad { ptr, i32 }
          catch ptr null
  %14 = extractvalue { ptr, i32 } %13, 0
  tail call void @__clang_call_terminate(ptr %14) #18
  unreachable

_ZN7obj_refI9func_decl11ast_managerED2Ev.exit18:  ; preds = %_ZN7obj_refI9func_decl11ast_managerED2Ev.exit9, %if.then.i.i.i11, %if.then2.i.i.i16
  %m_rel = getelementptr inbounds i8, ptr %this, i64 32
  %15 = load ptr, ptr %m_rel, align 8
  %tobool.not.i.i19 = icmp eq ptr %15, null
  br i1 %tobool.not.i.i19, label %_ZN7obj_refI4expr11ast_managerED2Ev.exit, label %if.then.i.i.i20

if.then.i.i.i20:                                  ; preds = %_ZN7obj_refI9func_decl11ast_managerED2Ev.exit18
  %m_manager.i.i21 = getelementptr inbounds i8, ptr %this, i64 40
  %16 = load ptr, ptr %m_manager.i.i21, align 8
  %m_ref_count.i.i.i.i22 = getelementptr inbounds i8, ptr %15, i64 8
  %17 = load i32, ptr %m_ref_count.i.i.i.i22, align 4
  %dec.i.i.i.i23 = add i32 %17, -1
  store i32 %dec.i.i.i.i23, ptr %m_ref_count.i.i.i.i22, align 4
  %cmp.i.i.i24 = icmp eq i32 %dec.i.i.i.i23, 0
  br i1 %cmp.i.i.i24, label %if.then2.i.i.i25, label %_ZN7obj_refI4expr11ast_managerED2Ev.exit

if.then2.i.i.i25:                                 ; preds = %if.then.i.i.i20
  invoke void @_ZN11ast_manager11delete_nodeEP3ast(ptr noundef nonnull align 8 dereferenceable(976) %16, ptr noundef nonnull %15)
          to label %_ZN7obj_refI4expr11ast_managerED2Ev.exit unwind label %terminate.lpad.i26

terminate.lpad.i26:                               ; preds = %if.then2.i.i.i25
  %18 = landingpad { ptr, i32 }
          catch ptr null
  %19 = extractvalue { ptr, i32 } %18, 0
  tail call void @__clang_call_terminate(ptr %19) #18
  unreachable

_ZN7obj_refI4expr11ast_managerED2Ev.exit:         ; preds = %_ZN7obj_refI9func_decl11ast_managerED2Ev.exit18, %if.then.i.i.i20, %if.then2.i.i.i25
  store ptr getelementptr inbounds ({ [18 x ptr] }, ptr @_ZTVN7datalog17tr_infrastructureINS_15relation_traitsEE13base_ancestorE, i64 0, i32 0, i64 2), ptr %this, align 8
  %m_signature.i.i = getelementptr inbounds i8, ptr %this, i64 16
  %20 = load ptr, ptr %m_signature.i.i, align 8
  %tobool.not.i.i.i.i.i.i.i = icmp eq ptr %20, null
  br i1 %tobool.not.i.i.i.i.i.i.i, label %_ZN7datalog13relation_baseD2Ev.exit, label %if.then.i.i.i.i.i.i.i

if.then.i.i.i.i.i.i.i:                            ; preds = %_ZN7obj_refI4expr11ast_managerED2Ev.exit
  %add.ptr.i.i.i.i.i.i.i.i = getelementptr inbounds i8, ptr %20, i64 -8
  invoke void @_ZN6memory10deallocateEPv(ptr noundef nonnull %add.ptr.i.i.i.i.i.i.i.i)
          to label %_ZN7datalog13relation_baseD2Ev.exit unwind label %terminate.lpad.i.i.i.i.i.i

terminate.lpad.i.i.i.i.i.i:                       ; preds = %if.then.i.i.i.i.i.i.i
  %21 = landingpad { ptr, i32 }
          catch ptr null
  %22 = extractvalue { ptr, i32 } %21, 0
  tail call void @__clang_call_terminate(ptr %22) #18
  unreachable

_ZN7datalog13relation_baseD2Ev.exit:              ; preds = %_ZN7obj_refI4expr11ast_managerED2Ev.exit, %if.then.i.i.i.i.i.i.i
  ret void
}